
00000000 <_start>:
    0:        10000517        auipc x10 0x10000
    4:        20250513        addi x10 x10 514
    8:        fec10113        addi x2 x2 -20
    c:        00010513        addi x10 x2 0
    10:        00000097        auipc x1 0x0 <_start>
    14:        058080e7        jalr x1 x1 88
    18:        00050593        addi x11 x10 0
    1c:        10000517        auipc x10 0x10000
    20:        fe450513        addi x10 x10 -28
    24:        00100613        addi x12 x0 1
    28:        00001097        auipc x1 0x1
    2c:        dd8080e7        jalr x1 x1 -552
    30:        00a12823        sw x10 16 x2
    34:        02a00663        beq x0 x10 44 <exit>
    38:        00010593        addi x11 x2 0
    3c:        00000613        addi x12 x0 0
    40:        00001097        auipc x1 0x1
    44:        dc0080e7        jalr x1 x1 -576
    48:        00001097        auipc x1 0x1
    4c:        3b4080e7        jalr x1 x1 948
    50:        01012503        lw x10 16 x2
    54:        00001097        auipc x1 0x1
    58:        3a8080e7        jalr x1 x1 936
    5c:        01410113        addi x2 x2 20

00000060 <exit>:
    60:        00a00893        addi x17 x0 10
    64:        00000073        ecall

00000068 <cypher_data_init>:
    68:        10000297        auipc x5 0x10000
    6c:        19a28293        addi x5 x5 410
    70:        10000317        auipc x6 0x10000
    74:        19c30303        lb x6 412 x6
    78:        10000397        auipc x7 0x10000
    7c:        19038393        addi x7 x7 400
    80:        00001e17        auipc x28 0x1
    84:        c38e0e13        addi x28 x28 -968
    88:        00552023        sw x5 0 x10
    8c:        00652223        sw x6 4 x10
    90:        00752423        sw x7 8 x10
    94:        01c52623        sw x28 12 x10
    98:        00008067        jalr x0 x1 0

0000009c <store_saved_registers>:
    9c:        00012f83        lw x31 0 x2
    a0:        002f9293        slli x5 x31 2
    a4:        10000317        auipc x6 0x10000
    a8:        17e30313        addi x6 x6 382
    ac:        40510133        sub x2 x2 x5
    b0:        405302b3        sub x5 x6 x5
    b4:        03028393        addi x7 x5 48
    b8:        0003a283        lw x5 0 x7
    bc:        00028067        jalr x0 x5 0

000000c0 <ssr_case_12>:
    c0:        03b12823        sw x27 48 x2

000000c4 <ssr_case_11>:
    c4:        03a12623        sw x26 44 x2

000000c8 <ssr_case_10>:
    c8:        03912423        sw x25 40 x2

000000cc <ssr_case_9>:
    cc:        03812223        sw x24 36 x2

000000d0 <ssr_case_8>:
    d0:        03712023        sw x23 32 x2

000000d4 <ssr_case_7>:
    d4:        01612e23        sw x22 28 x2

000000d8 <ssr_case_6>:
    d8:        01512c23        sw x21 24 x2

000000dc <ssr_case_5>:
    dc:        01412a23        sw x20 20 x2

000000e0 <ssr_case_4>:
    e0:        01312823        sw x19 16 x2

000000e4 <ssr_case_3>:
    e4:        01212623        sw x18 12 x2

000000e8 <ssr_case_2>:
    e8:        00912423        sw x9 8 x2

000000ec <ssr_case_1>:
    ec:        00812223        sw x8 4 x2
    f0:        01f12023        sw x31 0 x2
    f4:        00008067        jalr x0 x1 0

000000f8 <restore_saved_registers>:
    f8:        00012283        lw x5 0 x2
    fc:        10000317        auipc x6 0x10000
    100:        15630313        addi x6 x6 342
    104:        00229293        slli x5 x5 2
    108:        03030393        addi x7 x6 48
    10c:        40538e33        sub x28 x7 x5
    110:        000e2e03        lw x28 0 x28
    114:        000e0067        jalr x0 x28 0

00000118 <rsr_case_12>:
    118:        03012d83        lw x27 48 x2

0000011c <rsr_case_11>:
    11c:        02c12d03        lw x26 44 x2

00000120 <rsr_case_10>:
    120:        02812c83        lw x25 40 x2

00000124 <rsr_case_9>:
    124:        02412c03        lw x24 36 x2

00000128 <rsr_case_8>:
    128:        02012b83        lw x23 32 x2

0000012c <rsr_case_7>:
    12c:        01c12b03        lw x22 28 x2

00000130 <rsr_case_6>:
    130:        01812a83        lw x21 24 x2

00000134 <rsr_case_5>:
    134:        01412a03        lw x20 20 x2

00000138 <rsr_case_4>:
    138:        01012983        lw x19 16 x2

0000013c <rsr_case_3>:
    13c:        00c12903        lw x18 12 x2

00000140 <rsr_case_2>:
    140:        00812483        lw x9 8 x2

00000144 <rsr_case_1>:
    144:        00412403        lw x8 4 x2
    148:        00510133        add x2 x2 x5
    14c:        00008067        jalr x0 x1 0

00000150 <strlen>:
    150:        00050293        addi x5 x10 0
    154:        00000513        addi x10 x0 0

00000158 <strlen_loop>:
    158:        00a28333        add x6 x5 x10
    15c:        00030383        lb x7 0 x6
    160:        00038663        beq x7 x0 12 <end_strlen_loop>
    164:        00150513        addi x10 x10 1
    168:        ff1ff06f        jal x0 -16 <strlen_loop>

0000016c <end_strlen_loop>:
    16c:        00008067        jalr x0 x1 0

00000170 <push_stack>:
    170:        ff810113        addi x2 x2 -8
    174:        01112223        sw x17 4 x2
    178:        01012023        sw x16 0 x2
    17c:        00000317        auipc x6 0x0 <_start>
    180:        f2030067        jalr x0 x6 -224

00000184 <pop_stack>:
    184:        00000097        auipc x1 0x0 <_start>
    188:        f74080e7        jalr x1 x1 -140
    18c:        00412083        lw x1 4 x2
    190:        00810113        addi x2 x2 8
    194:        00008067        jalr x0 x1 0

00000198 <btoa>:
    198:        0ff57513        andi x10 x10 255
    19c:        10000f97        auipc x31 0x10000
    1a0:        0e6faf83        lw x31 230 x31
    1a4:        00a02e33        slt x28 x0 x10
    1a8:        00052eb3        slt x29 x10 x0
    1ac:        00050293        addi x5 x10 0
    1b0:        41de0e33        sub x28 x28 x29
    1b4:        02ae0533        mul x10 x28 x10
    1b8:        02af8333        mul x6 x31 x10
    1bc:        06400f13        addi x30 x0 100
    1c0:        41335313        srai x6 x6 19
    1c4:        026f83b3        mul x7 x31 x6
    1c8:        00a00e93        addi x29 x0 10
    1cc:        4133d393        srai x7 x7 19
    1d0:        00058f93        addi x31 x11 0
    1d4:        000e5863        bge x28 x0 16 <btoa_positive>
    1d8:        02d00e13        addi x28 x0 45
    1dc:        01cf8023        sb x28 0 x31
    1e0:        001f8f93        addi x31 x31 1

000001e4 <btoa_positive>:
    1e4:        03d54c63        blt x10 x29 56 <btoa_units>
    1e8:        03e54063        blt x10 x30 32 <btoa_tens>
    1ec:        03038e13        addi x28 x7 48
    1f0:        01cf8023        sb x28 0 x31
    1f4:        03d383b3        mul x7 x7 x29
    1f8:        001f8f93        addi x31 x31 1
    1fc:        40730333        sub x6 x6 x7
    200:        03d383b3        mul x7 x7 x29
    204:        407282b3        sub x5 x5 x7

00000208 <btoa_tens>:
    208:        03030e13        addi x28 x6 48
    20c:        01cf8023        sb x28 0 x31
    210:        001f8f93        addi x31 x31 1
    214:        026e8333        mul x6 x29 x6
    218:        406282b3        sub x5 x5 x6

0000021c <btoa_units>:
    21c:        03028e13        addi x28 x5 48
    220:        01cf8023        sb x28 0 x31
    224:        000f80a3        sb x0 1 x31
    228:        00058513        addi x10 x11 0
    22c:        00008067        jalr x0 x1 0

00000230 <uitoa>:
    230:        00a00e93        addi x29 x0 10
    234:        00100f93        addi x31 x0 1
    238:        00a00f13        addi x30 x0 10
    23c:        01e54863        blt x10 x30 16 <uitoa_matched>

00000240 <uitoa_match_pow>:
    240:        000f0f93        addi x31 x30 0
    244:        03df0f33        mul x30 x30 x29
    248:        ffe55ce3        bge x10 x30 -8 <uitoa_match_pow>

0000024c <uitoa_matched>:
    24c:        03f54333        div x6 x10 x31
    250:        03030293        addi x5 x6 48
    254:        00558023        sb x5 0 x11
    258:        00158593        addi x11 x11 1
    25c:        03f30333        mul x6 x6 x31
    260:        40650533        sub x10 x10 x6
    264:        03dfcfb3        div x31 x31 x29
    268:        fe0f92e3        bne x31 x0 -28 <uitoa_matched>
    26c:        00058023        sb x0 0 x11
    270:        00008067        jalr x0 x1 0

00000274 <strlncpy>:
    274:        00000293        addi x5 x0 0
    278:        02c05663        bge x0 x12 44 <strlncpy_return>
    27c:        fff60f93        addi x31 x12 -1
    280:        03f2d063        bge x5 x31 32 <strlncpy_null_terminate>

00000284 <strlncpy_loop>:
    284:        00050303        lb x6 0 x10
    288:        00150513        addi x10 x10 1
    28c:        00658023        sb x6 0 x11
    290:        00158593        addi x11 x11 1
    294:        00600863        beq x0 x6 16 <strlncpy_return>
    298:        00128293        addi x5 x5 1
    29c:        fff2c4e3        blt x5 x31 -24 <strlncpy_loop>

000002a0 <strlncpy_null_terminate>:
    2a0:        00050023        sb x0 0 x10

000002a4 <strlncpy_return>:
    2a4:        00028513        addi x10 x5 0
    2a8:        00008067        jalr x0 x1 0

000002ac <strndup>:
    2ac:        ffc10113        addi x2 x2 -4
    2b0:        00112023        sw x1 0 x2
    2b4:        ff810113        addi x2 x2 -8
    2b8:        00a12023        sw x10 0 x2
    2bc:        00158593        addi x11 x11 1
    2c0:        00b12223        sw x11 4 x2
    2c4:        00058513        addi x10 x11 0
    2c8:        00001097        auipc x1 0x1
    2cc:        eb8080e7        jalr x1 x1 -328
    2d0:        00a00c63        beq x0 x10 24 <strndup_return>
    2d4:        00050593        addi x11 x10 0
    2d8:        00012503        lw x10 0 x2
    2dc:        00412603        lw x12 4 x2
    2e0:        00000097        auipc x1 0x0 <_start>
    2e4:        f94080e7        jalr x1 x1 -108

000002e8 <strndup_return>:
    2e8:        00810113        addi x2 x2 8
    2ec:        00012083        lw x1 0 x2
    2f0:        00410113        addi x2 x2 4
    2f4:        00008067        jalr x0 x1 0

000002f8 <str_map>:
    2f8:        00500813        addi x16 x0 5
    2fc:        00008893        addi x17 x1 0
    300:        00000097        auipc x1 0x0 <_start>
    304:        e70080e7        jalr x1 x1 -400
    308:        00050493        addi x9 x10 0
    30c:        00058913        addi x18 x11 0
    310:        00060993        addi x19 x12 0
    314:        00000a13        addi x20 x0 0

00000318 <str_map_loop>:
    318:        014482b3        add x5 x9 x20
    31c:        00028303        lb x6 0 x5
    320:        02600063        beq x0 x6 32 <end_str_map_loop>
    324:        00030513        addi x10 x6 0
    328:        000980e7        jalr x1 x19 0
    32c:        014902b3        add x5 x18 x20
    330:        00a28023        sb x10 0 x5
    334:        00a00663        beq x0 x10 12 <end_str_map_loop>
    338:        001a0a13        addi x20 x20 1
    33c:        fddff06f        jal x0 -36 <str_map_loop>

00000340 <end_str_map_loop>:
    340:        014902b3        add x5 x18 x20
    344:        00028023        sb x0 0 x5
    348:        00090513        addi x10 x18 0
    34c:        00000317        auipc x6 0x0 <_start>
    350:        e3830067        jalr x0 x6 -456

00000354 <str_map_alloc>:
    354:        ff010113        addi x2 x2 -16
    358:        00112023        sw x1 0 x2
    35c:        00a12223        sw x10 4 x2
    360:        00b12423        sw x11 8 x2
    364:        00c12623        sw x12 12 x2
    368:        00158513        addi x10 x11 1
    36c:        00001097        auipc x1 0x1
    370:        e14080e7        jalr x1 x1 -492
    374:        00a00e63        beq x0 x10 28 <return_mapped_string>
    378:        00050593        addi x11 x10 0
    37c:        00412503        lw x10 4 x2
    380:        00c12603        lw x12 12 x2
    384:        00000097        auipc x1 0x0 <_start>
    388:        f74080e7        jalr x1 x1 -140
    38c:        00812583        lw x11 8 x2

00000390 <return_mapped_string>:
    390:        00012083        lw x1 0 x2
    394:        01010113        addi x2 x2 16
    398:        00008067        jalr x0 x1 0

0000039c <bzero>:
    39c:        02058863        beq x11 x0 48 <bzero_end>
    3a0:        00400293        addi x5 x0 4
    3a4:        0055cc63        blt x11 x5 24 <bzero_small>

000003a8 <bzero_loop>:
    3a8:        00052023        sw x0 0 x10
    3ac:        ffc58593        addi x11 x11 -4
    3b0:        00450513        addi x10 x10 4
    3b4:        fe55dae3        bge x11 x5 -12 <bzero_loop>
    3b8:        00b00a63        beq x0 x11 20 <bzero_end>

000003bc <bzero_small>:
    3bc:        00050023        sb x0 0 x10
    3c0:        00150513        addi x10 x10 1
    3c4:        fff58593        addi x11 x11 -1
    3c8:        00059263        bne x11 x0 4 <bzero_end>

000003cc <bzero_end>:
    3cc:        00008067        jalr x0 x1 0

000003d0 <memcpy>:
    3d0:        06060463        beq x12 x0 104 <memcpy_end>
    3d4:        00400293        addi x5 x0 4
    3d8:        00c02fb3        slt x31 x0 x12
    3dc:        00a5ae33        slt x28 x11 x10
    3e0:        00b52eb3        slt x29 x10 x11
    3e4:        41de0f33        sub x30 x28 x29
    3e8:        01ff7fb3        and x31 x30 x31
    3ec:        040f8663        beq x31 x0 76 <memcpy_end>
    3f0:        00a5c663        blt x11 x10 12 <no_reverse>
    3f4:        00c585b3        add x11 x11 x12
    3f8:        00c50533        add x10 x10 x12

000003fc <no_reverse>:
    3fc:        002f1f93        slli x31 x30 2
    400:        02564063        blt x12 x5 32 <memcpy_small>

00000404 <memcpy_loop>:
    404:        00052e03        lw x28 0 x10
    408:        01f50533        add x10 x10 x31
    40c:        01c5a023        sw x28 0 x11
    410:        01f585b3        add x11 x11 x31
    414:        ffc60613        addi x12 x12 -4
    418:        fe5656e3        bge x12 x5 -20 <memcpy_loop>
    41c:        00c00e63        beq x0 x12 28 <memcpy_end>

00000420 <memcpy_small>:
    420:        00050e03        lb x28 0 x10
    424:        01e50533        add x10 x10 x30
    428:        01c58023        sb x28 0 x11
    42c:        01e585b3        add x11 x11 x30
    430:        fff60613        addi x12 x12 -1
    434:        00061263        bne x12 x0 4 <memcpy_end>

00000438 <memcpy_end>:
    438:        00008067        jalr x0 x1 0

0000043c <caesar_sost>:
    43c:        05b52293        slti x5 x10 91
    440:        04000313        addi x6 x0 64
    444:        00a32333        slt x6 x6 x10
    448:        0062f2b3        and x5 x5 x6
    44c:        07b52313        slti x6 x10 123
    450:        06000393        addi x7 x0 96
    454:        00a3a3b3        slt x7 x7 x10
    458:        00737333        and x6 x6 x7
    45c:        0062e2b3        or x5 x5 x6
    460:        04500a63        beq x0 x5 84 <caesar_sost_end>
    464:        02057293        andi x5 x10 32
    468:        fbf50513        addi x10 x10 -65
    46c:        40550533        sub x10 x10 x5

00000470 <caesar_sost_load_k>:
    470:        00000013        addi x0 x0 0
    474:        00000013        addi x0 x0 0
    478:        00650533        add x10 x10 x6
    47c:        10000317        auipc x6 0x10000
    480:        e0a32303        lw x6 -502 x6
    484:        00052e33        slt x28 x10 x0
    488:        02a30333        mul x6 x6 x10
    48c:        41435313        srai x6 x6 20
    490:        01a00393        addi x7 x0 26
    494:        01c30333        add x6 x6 x28
    498:        02730333        mul x6 x6 x7
    49c:        40650333        sub x6 x10 x6
    4a0:        00032e33        slt x28 x6 x0
    4a4:        03c383b3        mul x7 x7 x28
    4a8:        00730533        add x10 x6 x7
    4ac:        04150513        addi x10 x10 65
    4b0:        00550533        add x10 x10 x5

000004b4 <caesar_sost_end>:
    4b4:        00008067        jalr x0 x1 0

000004b8 <caesar_decypher>:
    4b8:        01a00293        addi x5 x0 26
    4bc:        40c28633        sub x12 x5 x12
    4c0:        00000317        auipc x6 0x0 <_start>
    4c4:        00830067        jalr x0 x6 8

000004c8 <caesar_encrypt>:
    4c8:        00008893        addi x17 x1 0
    4cc:        00300813        addi x16 x0 3
    4d0:        00000097        auipc x1 0x0 <_start>
    4d4:        ca0080e7        jalr x1 x1 -864
    4d8:        00050493        addi x9 x10 0
    4dc:        00058913        addi x18 x11 0
    4e0:        00060513        addi x10 x12 0
    4e4:        00600593        addi x11 x0 6
    4e8:        00000617        auipc x12 0x0 <_start>
    4ec:        f8860613        addi x12 x12 -120
    4f0:        00000097        auipc x1 0x0 <_start>
    4f4:        0b0080e7        jalr x1 x1 176
    4f8:        00048513        addi x10 x9 0
    4fc:        00090593        addi x11 x18 0
    500:        00000617        auipc x12 0x0 <_start>
    504:        f3c60613        addi x12 x12 -196
    508:        00000097        auipc x1 0x0 <_start>
    50c:        e4c080e7        jalr x1 x1 -436
    510:        00000317        auipc x6 0x0 <_start>
    514:        c7430067        jalr x0 x6 -908

00000518 <char_map>:
    518:        06000f93        addi x31 x0 96
    51c:        02000f13        addi x30 x0 32
    520:        02c00463        beq x0 x12 40 <reverse_map>

00000524 <char_map_encrypt>:
    524:        00b50533        add x10 x10 x11
    528:        10000297        auipc x5 0x10000
    52c:        d622a283        lw x5 -670 x5
    530:        02a28333        mul x6 x5 x10
    534:        41635313        srai x6 x6 22
    538:        03f30333        mul x6 x6 x31
    53c:        40650533        sub x10 x10 x6
    540:        01e50533        add x10 x10 x30
    544:        0180006f        jal x0 24 <char_map_ret>

00000548 <reverse_map>:
    548:        41e50533        sub x10 x10 x30
    54c:        40b50533        sub x10 x10 x11
    550:        00af4663        blt x30 x10 12 <char_map_ret>

00000554 <reverse_mod>:
    554:        00af8533        add x10 x31 x10
    558:        ffe54ee3        blt x10 x30 -4 <reverse_mod>

0000055c <char_map_ret>:
    55c:        00008067        jalr x0 x1 0

00000560 <block_map_load_str>:
    560:        00000013        addi x0 x0 0
    564:        00000013        addi x0 x0 0

00000568 <block_map_load_i>:
    568:        00000013        addi x0 x0 0
    56c:        00000013        addi x0 x0 0

00000570 <block_map_load_bool>:
    570:        00000013        addi x0 x0 0
    574:        00000013        addi x0 x0 0
    578:        00032e03        lw x28 0 x6
    57c:        01c283b3        add x7 x5 x28
    580:        00038583        lb x11 0 x7
    584:        00b01663        bne x0 x11 12 <continue_block_iter>

00000588 <reset_counter>:
    588:        00000e13        addi x28 x0 0
    58c:        00028583        lb x11 0 x5

00000590 <continue_block_iter>:
    590:        001e0e13        addi x28 x28 1
    594:        01c32023        sw x28 0 x6
    598:        00000317        auipc x6 0x0 <_start>
    59c:        f8030067        jalr x0 x6 -128

000005a0 <curry_word>:
    5a0:        01451313        slli x6 x10 20
    5a4:        00032f33        slt x30 x6 x0
    5a8:        00759f93        slli x31 x11 7
    5ac:        01336293        ori x5 x6 19
    5b0:        01f2e2b3        or x5 x5 x31
    5b4:        00f59393        slli x7 x11 15
    5b8:        0072e2b3        or x5 x5 x7
    5bc:        00562223        sw x5 4 x12
    5c0:        00c55293        srli x5 x10 12
    5c4:        01e282b3        add x5 x5 x30
    5c8:        00c29293        slli x5 x5 12
    5cc:        0372e293        ori x5 x5 55
    5d0:        01f2e2b3        or x5 x5 x31
    5d4:        00562023        sw x5 0 x12
    5d8:        00000513        addi x10 x0 0
    5dc:        00008067        jalr x0 x1 0

000005e0 <create_block_lambda>:
    5e0:        00300813        addi x16 x0 3
    5e4:        00008893        addi x17 x1 0
    5e8:        00000097        auipc x1 0x0 <_start>
    5ec:        b88080e7        jalr x1 x1 -1144
    5f0:        00058493        addi x9 x11 0
    5f4:        00060913        addi x18 x12 0
    5f8:        00500593        addi x11 x0 5
    5fc:        00000617        auipc x12 0x0 <_start>
    600:        f6460613        addi x12 x12 -156
    604:        00000097        auipc x1 0x0 <_start>
    608:        f9c080e7        jalr x1 x1 -100
    60c:        0004a023        sw x0 0 x9
    610:        00048513        addi x10 x9 0
    614:        00600593        addi x11 x0 6
    618:        00000617        auipc x12 0x0 <_start>
    61c:        f5060613        addi x12 x12 -176
    620:        00000097        auipc x1 0x0 <_start>
    624:        f80080e7        jalr x1 x1 -128
    628:        00090513        addi x10 x18 0
    62c:        00c00593        addi x11 x0 12
    630:        00000617        auipc x12 0x0 <_start>
    634:        f4060613        addi x12 x12 -192
    638:        00000097        auipc x1 0x0 <_start>
    63c:        f68080e7        jalr x1 x1 -152
    640:        00000317        auipc x6 0x0 <_start>
    644:        b4430067        jalr x0 x6 -1212

00000648 <block>:
    648:        00300813        addi x16 x0 3
    64c:        00008893        addi x17 x1 0
    650:        00000097        auipc x1 0x0 <_start>
    654:        b20080e7        jalr x1 x1 -1248
    658:        ffc10113        addi x2 x2 -4
    65c:        00050493        addi x9 x10 0
    660:        00058913        addi x18 x11 0
    664:        00060513        addi x10 x12 0
    668:        00010593        addi x11 x2 0
    66c:        00068613        addi x12 x13 0
    670:        00000097        auipc x1 0x0 <_start>
    674:        f70080e7        jalr x1 x1 -144
    678:        00048513        addi x10 x9 0
    67c:        00090593        addi x11 x18 0
    680:        00000617        auipc x12 0x0 <_start>
    684:        ee060613        addi x12 x12 -288
    688:        00000097        auipc x1 0x0 <_start>
    68c:        ccc080e7        jalr x1 x1 -820
    690:        00410113        addi x2 x2 4
    694:        00000317        auipc x6 0x0 <_start>
    698:        af030067        jalr x0 x6 -1296

0000069c <new_arena>:
    69c:        04a05863        bge x0 x10 80 <failed_arena_init>
    6a0:        ff810113        addi x2 x2 -8
    6a4:        00112023        sw x1 0 x2
    6a8:        00a12223        sw x10 4 x2
    6ac:        00850513        addi x10 x10 8
    6b0:        00001097        auipc x1 0x1
    6b4:        ad0080e7        jalr x1 x1 -1328
    6b8:        02a00463        beq x0 x10 40 <arena_return>
    6bc:        00412283        lw x5 4 x2
    6c0:        00552223        sw x5 4 x10
    6c4:        00052023        sw x0 0 x10
    6c8:        00a12223        sw x10 4 x2
    6cc:        00850513        addi x10 x10 8
    6d0:        00028593        addi x11 x5 0
    6d4:        00000097        auipc x1 0x0 <_start>
    6d8:        cc8080e7        jalr x1 x1 -824
    6dc:        00412503        lw x10 4 x2

000006e0 <arena_return>:
    6e0:        00012083        lw x1 0 x2
    6e4:        00810113        addi x2 x2 8
    6e8:        00008067        jalr x0 x1 0

000006ec <failed_arena_init>:
    6ec:        00000513        addi x10 x0 0
    6f0:        00008067        jalr x0 x1 0

000006f4 <block_encrypt>:
    6f4:        00100693        addi x13 x0 1
    6f8:        00000317        auipc x6 0x0 <_start>
    6fc:        f5030067        jalr x0 x6 -176

00000700 <block_decypher>:
    700:        00000693        addi x13 x0 0
    704:        00000317        auipc x6 0x0 <_start>
    708:        f4430067        jalr x0 x6 -188

0000070c <arena_alloc>:
    70c:        0015b293        sltiu x5 x11 1
    710:        00152313        slti x6 x10 1
    714:        005362b3        or x5 x6 x5
    718:        00500663        beq x0 x5 12 <arena_alloc_check_pass>
    71c:        00000513        addi x10 x0 0
    720:        00008067        jalr x0 x1 0

00000724 <arena_alloc_check_pass>:
    724:        00300813        addi x16 x0 3
    728:        00008893        addi x17 x1 0
    72c:        00000097        auipc x1 0x0 <_start>
    730:        a44080e7        jalr x1 x1 -1468
    734:        ffc10113        addi x2 x2 -4
    738:        00000493        addi x9 x0 0
    73c:        00058913        addi x18 x11 0
    740:        00092303        lw x6 0 x18
    744:        00492383        lw x7 4 x18
    748:        00a30e33        add x28 x6 x10
    74c:        01c3c863        blt x7 x28 16 <arena_alloc_return>
    750:        01c92023        sw x28 0 x18
    754:        00890493        addi x9 x18 8
    758:        009304b3        add x9 x6 x9

0000075c <arena_alloc_return>:
    75c:        00048513        addi x10 x9 0
    760:        00410113        addi x2 x2 4
    764:        00000317        auipc x6 0x0 <_start>
    768:        a2030067        jalr x0 x6 -1504

0000076c <add_occurrence>:
    76c:        00300813        addi x16 x0 3
    770:        00008893        addi x17 x1 0
    774:        00000097        auipc x1 0x0 <_start>
    778:        9fc080e7        jalr x1 x1 -1540
    77c:        0005a283        lw x5 0 x11
    780:        00050493        addi x9 x10 0
    784:        00500863        beq x0 x5 16 <new_occurrence_node>

00000788 <occ_list_end_search>:
    788:        00428593        addi x11 x5 4
    78c:        0005a283        lw x5 0 x11
    790:        fe501ce3        bne x0 x5 -8 <occ_list_end_search>

00000794 <new_occurrence_node>:
    794:        00058913        addi x18 x11 0
    798:        00800513        addi x10 x0 8
    79c:        00060593        addi x11 x12 0
    7a0:        00000097        auipc x1 0x0 <_start>
    7a4:        f6c080e7        jalr x1 x1 -148
    7a8:        00a00863        beq x0 x10 16 <add_occurrence_return>
    7ac:        00a92023        sw x10 0 x18
    7b0:        00952023        sw x9 0 x10
    7b4:        00100513        addi x10 x0 1

000007b8 <add_occurrence_return>:
    7b8:        00000317        auipc x6 0x0 <_start>
    7bc:        9cc30067        jalr x0 x6 -1588

000007c0 <encrypt_char_occurrence>:
    7c0:        00600813        addi x16 x0 6
    7c4:        00008893        addi x17 x1 0
    7c8:        00000097        auipc x1 0x0 <_start>
    7cc:        9a8080e7        jalr x1 x1 -1624
    7d0:        ff410113        addi x2 x2 -12
    7d4:        00058493        addi x9 x11 0
    7d8:        40810133        sub x2 x2 x8
    7dc:        00060913        addi x18 x12 0
    7e0:        00068993        addi x19 x13 0
    7e4:        02d00293        addi x5 x0 45
    7e8:        00510023        sb x5 0 x2
    7ec:        00100a13        addi x20 x0 1
    7f0:        00a62023        sw x10 0 x12

000007f4 <occurrence_encrypt_loop>:
    7f4:        0004a503        lw x10 0 x9
    7f8:        00110593        addi x11 x2 1
    7fc:        00000097        auipc x1 0x0 <_start>
    800:        a34080e7        jalr x1 x1 -1484
    804:        00010513        addi x10 x2 0
    808:        414982b3        sub x5 x19 x20
    80c:        00128613        addi x12 x5 1
    810:        014905b3        add x11 x18 x20
    814:        00000097        auipc x1 0x0 <_start>
    818:        a60080e7        jalr x1 x1 -1440
    81c:        00aa0a33        add x20 x20 x10
    820:        0044a483        lw x9 4 x9
    824:        013a2333        slt x6 x20 x19
    828:        009022b3        slt x5 x0 x9
    82c:        005372b3        and x5 x6 x5
    830:        fc5012e3        bne x0 x5 -60 <occurrence_encrypt_loop>

00000834 <occurrence_encrypt_return>:
    834:        012a02b3        add x5 x20 x18
    838:        000a0513        addi x10 x20 0
    83c:        00028023        sb x0 0 x5
    840:        00c10113        addi x2 x2 12
    844:        00000317        auipc x6 0x0 <_start>
    848:        94030067        jalr x0 x6 -1728

0000084c <get_occurrence_map>:
    84c:        00008893        addi x17 x1 0
    850:        00500813        addi x16 x0 5
    854:        00000097        auipc x1 0x0 <_start>
    858:        91c080e7        jalr x1 x1 -1764
    85c:        00050493        addi x9 x10 0
    860:        00058913        addi x18 x11 0
    864:        00060a13        addi x20 x12 0
    868:        00050283        lb x5 0 x10
    86c:        04500463        beq x0 x5 72 <occurrence_map_fail>
    870:        00090513        addi x10 x18 0
    874:        18000593        addi x11 x0 384
    878:        00000097        auipc x1 0x0 <_start>
    87c:        b24080e7        jalr x1 x1 -1244
    880:        00000993        addi x19 x0 0

00000884 <get_occurrence_loop>:
    884:        009982b3        add x5 x19 x9
    888:        00028283        lb x5 0 x5
    88c:        02500663        beq x0 x5 44 <occurrence_map_return>
    890:        fe028313        addi x6 x5 -32
    894:        00231313        slli x6 x6 2
    898:        006905b3        add x11 x18 x6
    89c:        00198513        addi x10 x19 1
    8a0:        000a0613        addi x12 x20 0
    8a4:        00000097        auipc x1 0x0 <_start>
    8a8:        ec8080e7        jalr x1 x1 -312
    8ac:        00198993        addi x19 x19 1
    8b0:        fc051ae3        bne x10 x0 -44 <get_occurrence_loop>

000008b4 <occurrence_map_fail>:
    8b4:        00000913        addi x18 x0 0

000008b8 <occurrence_map_return>:
    8b8:        00090513        addi x10 x18 0

000008bc <occurrence_map_end>:
    8bc:        00000317        auipc x6 0x0 <_start>
    8c0:        8c830067        jalr x0 x6 -1848

000008c4 <occurrence_dest_size>:
    8c4:        00000293        addi x5 x0 0
    8c8:        18000f93        addi x31 x0 384
    8cc:        00000e13        addi x28 x0 0

000008d0 <count_unique_characters>:
    8d0:        01c503b3        add x7 x10 x28
    8d4:        0003a383        lw x7 0 x7
    8d8:        007023b3        slt x7 x0 x7
    8dc:        007282b3        add x5 x5 x7
    8e0:        004e0e13        addi x28 x28 4
    8e4:        fffe46e3        blt x28 x31 -20 <count_unique_characters>

000008e8 <get_total_numstr_len>:
    8e8:        00000313        addi x6 x0 0
    8ec:        00a00393        addi x7 x0 10
    8f0:        00100e13        addi x28 x0 1
    8f4:        00a00f13        addi x30 x0 10
    8f8:        00100f93        addi x31 x0 1
    8fc:        0275c063        blt x11 x7 32 <remaining_numstrings>

00000900 <total_numstring_size_of_len>:
    900:        41f38eb3        sub x29 x7 x31
    904:        03de0eb3        mul x29 x28 x29
    908:        01d30333        add x6 x6 x29
    90c:        001e0e13        addi x28 x28 1
    910:        00038f93        addi x31 x7 0
    914:        03e383b3        mul x7 x7 x30
    918:        fe75d4e3        bge x11 x7 -24 <total_numstring_size_of_len>

0000091c <remaining_numstrings>:
    91c:        ffff8f93        addi x31 x31 -1
    920:        41f58fb3        sub x31 x11 x31
    924:        03cf8fb3        mul x31 x31 x28
    928:        01f30333        add x6 x6 x31

0000092c <total_occurrence_dest_size>:
    92c:        00129293        slli x5 x5 1
    930:        fff28293        addi x5 x5 -1
    934:        00b282b3        add x5 x5 x11
    938:        00530533        add x10 x6 x5
    93c:        00008067        jalr x0 x1 0

00000940 <occurrence_construct_cypher_text>:
    940:        00600813        addi x16 x0 6
    944:        00008893        addi x17 x1 0
    948:        00000097        auipc x1 0x0 <_start>
    94c:        828080e7        jalr x1 x1 -2008
    950:        00050a13        addi x20 x10 0
    954:        00058913        addi x18 x11 0
    958:        00158513        addi x10 x11 1
    95c:        00001097        auipc x1 0x1
    960:        824080e7        jalr x1 x1 -2012
    964:        00050493        addi x9 x10 0
    968:        06a00463        beq x0 x10 104 <occurrence_construct_return>
    96c:        00000993        addi x19 x0 0
    970:        00000a93        addi x21 x0 0

00000974 <construct_occurrence_ctext_loop>:
    974:        014985b3        add x11 x19 x20
    978:        0005a583        lw x11 0 x11
    97c:        02b00c63        beq x0 x11 56 <next_character_occurrence>
    980:        01500c63        beq x0 x21 24 <after_separator>
    984:        015482b3        add x5 x9 x21
    988:        001a8a93        addi x21 x21 1
    98c:        032a8e63        beq x21 x18 60 <occurrence_null_terminate>
    990:        02000313        addi x6 x0 32
    994:        00628023        sb x6 0 x5

00000998 <after_separator>:
    998:        4029d513        srai x10 x19 2
    99c:        02050513        addi x10 x10 32
    9a0:        01548633        add x12 x9 x21
    9a4:        415906b3        sub x13 x18 x21
    9a8:        00000097        auipc x1 0x0 <_start>
    9ac:        e18080e7        jalr x1 x1 -488
    9b0:        00aa8ab3        add x21 x21 x10

000009b4 <next_character_occurrence>:
    9b4:        00498993        addi x19 x19 4
    9b8:        012aa333        slt x6 x21 x18
    9bc:        1809a293        slti x5 x19 384
    9c0:        0062f2b3        and x5 x5 x6
    9c4:        fa5018e3        bne x0 x5 -80 <construct_occurrence_ctext_loop>

000009c8 <occurrence_null_terminate>:
    9c8:        015482b3        add x5 x9 x21
    9cc:        00028023        sb x0 0 x5

000009d0 <occurrence_construct_return>:
    9d0:        00048513        addi x10 x9 0
    9d4:        fffff317        auipc x6 0xfffff
    9d8:        7b030067        jalr x0 x6 1968

000009dc <occurrence_encrypt>:
    9dc:        00008893        addi x17 x1 0
    9e0:        00500813        addi x16 x0 5
    9e4:        fffff097        auipc x1 0xfffff
    9e8:        78c080e7        jalr x1 x1 1932
    9ec:        e8010113        addi x2 x2 -384
    9f0:        00050493        addi x9 x10 0
    9f4:        00000993        addi x19 x0 0
    9f8:        00058913        addi x18 x11 0
    9fc:        00800293        addi x5 x0 8
    a00:        02590533        mul x10 x18 x5
    a04:        00000097        auipc x1 0x0 <_start>
    a08:        c98080e7        jalr x1 x1 -872
    a0c:        04a00c63        beq x0 x10 88 <end_occurrence>
    a10:        00050a13        addi x20 x10 0
    a14:        00050613        addi x12 x10 0
    a18:        00048513        addi x10 x9 0
    a1c:        00010593        addi x11 x2 0
    a20:        00000097        auipc x1 0x0 <_start>
    a24:        e2c080e7        jalr x1 x1 -468
    a28:        02a00263        beq x0 x10 36 <end_occurrence_w_free>
    a2c:        00090593        addi x11 x18 0
    a30:        00000097        auipc x1 0x0 <_start>
    a34:        e94080e7        jalr x1 x1 -364
    a38:        00050913        addi x18 x10 0
    a3c:        00010513        addi x10 x2 0
    a40:        00090593        addi x11 x18 0
    a44:        00000097        auipc x1 0x0 <_start>
    a48:        efc080e7        jalr x1 x1 -260

00000a4c <end_occurrence_w_free>:
    a4c:        00050993        addi x19 x10 0
    a50:        000a0513        addi x10 x20 0
    a54:        00001097        auipc x1 0x1
    a58:        9a8080e7        jalr x1 x1 -1624
    a5c:        00098513        addi x10 x19 0
    a60:        00090593        addi x11 x18 0

00000a64 <end_occurrence>:
    a64:        18010113        addi x2 x2 384
    a68:        fffff317        auipc x6 0xfffff
    a6c:        71c30067        jalr x0 x6 1820

00000a70 <atoui>:
    a70:        00050283        lb x5 0 x10
    a74:        02000313        addi x6 x0 32
    a78:        00629863        bne x5 x6 16 <not_space>

00000a7c <atoui_skip_space>:
    a7c:        00150513        addi x10 x10 1
    a80:        00050283        lb x5 0 x10
    a84:        fe628ce3        beq x5 x6 -8 <atoui_skip_space>

00000a88 <not_space>:
    a88:        00000f93        addi x31 x0 0
    a8c:        03900f13        addi x30 x0 57
    a90:        0302a313        slti x6 x5 48
    a94:        005f23b3        slt x7 x30 x5
    a98:        00736333        or x6 x6 x7
    a9c:        02601663        bne x0 x6 44 <atoui_ret>
    aa0:        00a00e93        addi x29 x0 10

00000aa4 <atoui_loop>:
    aa4:        fd028e13        addi x28 x5 -48
    aa8:        00150513        addi x10 x10 1
    aac:        03df8fb3        mul x31 x31 x29
    ab0:        00050283        lb x5 0 x10
    ab4:        01cf8fb3        add x31 x31 x28
    ab8:        0302a313        slti x6 x5 48
    abc:        005f23b3        slt x7 x30 x5
    ac0:        00736333        or x6 x6 x7
    ac4:        fe6000e3        beq x0 x6 -32 <atoui_loop>

00000ac8 <atoui_ret>:
    ac8:        000f8513        addi x10 x31 0
    acc:        00008067        jalr x0 x1 0

00000ad0 <strchr>:
    ad0:        00000f93        addi x31 x0 0
    ad4:        00050283        lb x5 0 x10
    ad8:        00b28e63        beq x5 x11 28 <strchr_end>
    adc:        00500c63        beq x0 x5 24 <strchr_end>

00000ae0 <strchr_loop>:
    ae0:        001f8f93        addi x31 x31 1
    ae4:        01f502b3        add x5 x10 x31
    ae8:        00028283        lb x5 0 x5
    aec:        00b28463        beq x5 x11 8 <strchr_end>
    af0:        fe0298e3        bne x5 x0 -16 <strchr_loop>

00000af4 <strchr_end>:
    af4:        000f8513        addi x10 x31 0
    af8:        00008067        jalr x0 x1 0

00000afc <occurrence_plaintext_size>:
    afc:        00500813        addi x16 x0 5
    b00:        00008893        addi x17 x1 0
    b04:        fffff097        auipc x1 0xfffff
    b08:        66c080e7        jalr x1 x1 1644
    b0c:        00050493        addi x9 x10 0
    b10:        00000913        addi x18 x0 0
    b14:        00000993        addi x19 x0 0
    b18:        02d00a13        addi x20 x0 45
    b1c:        00048283        lb x5 0 x9
    b20:        04500063        beq x0 x5 64 <plaintext_size_ret>
    b24:        005a0c63        beq x20 x5 24 <found_dash>

00000b28 <occurrence_ct_iter>:
    b28:        00198993        addi x19 x19 1
    b2c:        013482b3        add x5 x9 x19
    b30:        00028283        lb x5 0 x5
    b34:        02500663        beq x0 x5 44 <plaintext_size_ret>
    b38:        fe5a18e3        bne x20 x5 -16 <occurrence_ct_iter>

00000b3c <found_dash>:
    b3c:        00198993        addi x19 x19 1
    b40:        00048283        lb x5 0 x9
    b44:        ff428ce3        beq x5 x20 -8 <found_dash>

00000b48 <after_dash>:
    b48:        01348533        add x10 x9 x19
    b4c:        00000097        auipc x1 0x0 <_start>
    b50:        f24080e7        jalr x1 x1 -220
    b54:        fca95ae3        bge x18 x10 -44 <occurrence_ct_iter>

00000b58 <store_max>:
    b58:        00050913        addi x18 x10 0
    b5c:        fcdff06f        jal x0 -52 <occurrence_ct_iter>

00000b60 <plaintext_size_ret>:
    b60:        00090513        addi x10 x18 0
    b64:        fffff317        auipc x6 0xfffff
    b68:        62030067        jalr x0 x6 1568

00000b6c <restore_char_by_occurrence>:
    b6c:        00600813        addi x16 x0 6
    b70:        00008893        addi x17 x1 0
    b74:        fffff097        auipc x1 0xfffff
    b78:        5fc080e7        jalr x1 x1 1532
    b7c:        00050493        addi x9 x10 0
    b80:        00058913        addi x18 x11 0
    b84:        00200993        addi x19 x0 2
    b88:        00048a03        lb x20 0 x9
    b8c:        00060a93        addi x21 x12 0

00000b90 <char_occurrence_loop>:
    b90:        01348533        add x10 x9 x19
    b94:        00000097        auipc x1 0x0 <_start>
    b98:        edc080e7        jalr x1 x1 -292
    b9c:        fff50513        addi x10 x10 -1
    ba0:        012502b3        add x5 x10 x18
    ba4:        01428023        sb x20 0 x5
    ba8:        01348533        add x10 x9 x19
    bac:        02d00593        addi x11 x0 45
    bb0:        00000097        auipc x1 0x0 <_start>
    bb4:        f20080e7        jalr x1 x1 -224
    bb8:        00a989b3        add x19 x19 x10
    bbc:        00198993        addi x19 x19 1
    bc0:        fd59c8e3        blt x19 x21 -48 <char_occurrence_loop>

00000bc4 <restore_char_by_occurrence_end>:
    bc4:        fffff317        auipc x6 0xfffff
    bc8:        5c030067        jalr x0 x6 1472

00000bcc <occurrence_construct_plain_text>:
    bcc:        00400813        addi x16 x0 4
    bd0:        00008893        addi x17 x1 0
    bd4:        fffff097        auipc x1 0xfffff
    bd8:        59c080e7        jalr x1 x1 1436
    bdc:        00050493        addi x9 x10 0
    be0:        00058913        addi x18 x11 0
    be4:        00048283        lb x5 0 x9
    be8:        00148513        addi x10 x9 1
    bec:        02000593        addi x11 x0 32
    bf0:        00000097        auipc x1 0x0 <_start>
    bf4:        ee0080e7        jalr x1 x1 -288
    bf8:        00150993        addi x19 x10 1
    bfc:        013482b3        add x5 x9 x19
    c00:        00028283        lb x5 0 x5
    c04:        04500063        beq x0 x5 64 <construct_plain_text_end_iter>

00000c08 <occurrence_cpt_iter>:
    c08:        00048513        addi x10 x9 0
    c0c:        00090593        addi x11 x18 0
    c10:        00098613        addi x12 x19 0
    c14:        00000097        auipc x1 0x0 <_start>
    c18:        f58080e7        jalr x1 x1 -168

00000c1c <ocpt_search_next_group>:
    c1c:        013484b3        add x9 x9 x19
    c20:        00148493        addi x9 x9 1
    c24:        02000593        addi x11 x0 32
    c28:        00048513        addi x10 x9 0
    c2c:        00000097        auipc x1 0x0 <_start>
    c30:        ea4080e7        jalr x1 x1 -348
    c34:        00050993        addi x19 x10 0
    c38:        013482b3        add x5 x9 x19
    c3c:        00028283        lb x5 0 x5
    c40:        fc0294e3        bne x5 x0 -56 <occurrence_cpt_iter>

00000c44 <construct_plain_text_end_iter>:
    c44:        00048513        addi x10 x9 0
    c48:        00090593        addi x11 x18 0
    c4c:        00098613        addi x12 x19 0
    c50:        00000097        auipc x1 0x0 <_start>
    c54:        f1c080e7        jalr x1 x1 -228
    c58:        00090513        addi x10 x18 0
    c5c:        fffff317        auipc x6 0xfffff
    c60:        52830067        jalr x0 x6 1320

00000c64 <occurrence_decypher>:
    c64:        00300813        addi x16 x0 3
    c68:        00008893        addi x17 x1 0
    c6c:        fffff097        auipc x1 0xfffff
    c70:        504080e7        jalr x1 x1 1284
    c74:        00050493        addi x9 x10 0
    c78:        00000097        auipc x1 0x0 <_start>
    c7c:        e84080e7        jalr x1 x1 -380
    c80:        00050913        addi x18 x10 0
    c84:        00150513        addi x10 x10 1
    c88:        00000097        auipc x1 0x0 <_start>
    c8c:        4f8080e7        jalr x1 x1 1272
    c90:        00a00e63        beq x0 x10 28 <occurrence_decypher_ret>
    c94:        00050593        addi x11 x10 0
    c98:        00048513        addi x10 x9 0
    c9c:        00000097        auipc x1 0x0 <_start>
    ca0:        f30080e7        jalr x1 x1 -208
    ca4:        00a902b3        add x5 x18 x10
    ca8:        00028023        sb x0 0 x5

00000cac <occurrence_decypher_ret>:
    cac:        00090593        addi x11 x18 0
    cb0:        fffff317        auipc x6 0xfffff
    cb4:        4d430067        jalr x0 x6 1236

00000cb8 <dictionary_function>:
    cb8:        04100293        addi x5 x0 65
    cbc:        05a00313        addi x6 x0 90
    cc0:        00554863        blt x10 x5 16 <not_upper>
    cc4:        00a34663        blt x6 x10 12 <not_upper>
    cc8:        07a00313        addi x6 x0 122
    ccc:        0380006f        jal x0 56 <end_dict_if>

00000cd0 <not_upper>:
    cd0:        06100293        addi x5 x0 97
    cd4:        07a00313        addi x6 x0 122
    cd8:        00554863        blt x10 x5 16 <not_letter>
    cdc:        00a34663        blt x6 x10 12 <not_letter>
    ce0:        05a00313        addi x6 x0 90
    ce4:        0200006f        jal x0 32 <end_dict_if>

00000ce8 <not_letter>:
    ce8:        03000293        addi x5 x0 48
    cec:        03900313        addi x6 x0 57
    cf0:        00554863        blt x10 x5 16 <not_alphanumeric>
    cf4:        00a34663        blt x6 x10 12 <not_alphanumeric>
    cf8:        00000013        addi x0 x0 0
    cfc:        0080006f        jal x0 8 <end_dict_if>

00000d00 <not_alphanumeric>:
    d00:        00008067        jalr x0 x1 0

00000d04 <end_dict_if>:
    d04:        40550533        sub x10 x10 x5
    d08:        40a30533        sub x10 x6 x10
    d0c:        00008067        jalr x0 x1 0

00000d10 <dictionary>:
    d10:        fffff317        auipc x6 0xfffff
    d14:        64430067        jalr x0 x6 1604

00000d18 <inversion>:
    d18:        00500813        addi x16 x0 5
    d1c:        00008893        addi x17 x1 0
    d20:        fffff097        auipc x1 0xfffff
    d24:        450080e7        jalr x1 x1 1104
    d28:        00050493        addi x9 x10 0
    d2c:        00000a13        addi x20 x0 0
    d30:        00058913        addi x18 x11 0
    d34:        00158513        addi x10 x11 1
    d38:        00000097        auipc x1 0x0 <_start>
    d3c:        448080e7        jalr x1 x1 1096
    d40:        02a00a63        beq x0 x10 52 <end_inversion>
    d44:        00050a13        addi x20 x10 0
    d48:        00000993        addi x19 x0 0
    d4c:        03298063        beq x19 x18 32 <end_inv_loop>

00000d50 <inv_loop>:
    d50:        013482b3        add x5 x9 x19
    d54:        00028283        lb x5 0 x5
    d58:        41390333        sub x6 x18 x19
    d5c:        006a0333        add x6 x20 x6
    d60:        fe530fa3        sb x5 -1 x6
    d64:        00198993        addi x19 x19 1
    d68:        ff2994e3        bne x19 x18 -24 <inv_loop>

00000d6c <end_inv_loop>:
    d6c:        012a02b3        add x5 x20 x18
    d70:        00028023        sb x0 0 x5

00000d74 <end_inversion>:
    d74:        000a0513        addi x10 x20 0
    d78:        00090593        addi x11 x18 0
    d7c:        012502b3        add x5 x10 x18
    d80:        00028023        sb x0 0 x5
    d84:        fffff317        auipc x6 0xfffff
    d88:        40030067        jalr x0 x6 1024

00000d8c <char_sanitizer>:
    d8c:        00000293        addi x5 x0 0
    d90:        0ffff317        auipc x6 0xffff
    d94:        48c30313        addi x6 x6 1164

00000d98 <sanitizer_loop>:
    d98:        005303b3        add x7 x6 x5
    d9c:        00038383        lb x7 0 x7
    da0:        00700a63        beq x0 x7 20 <end_sanitizer_loop>
    da4:        00a39463        bne x7 x10 8 <mismatched_char>
    da8:        00008067        jalr x0 x1 0

00000dac <mismatched_char>:
    dac:        00128293        addi x5 x5 1
    db0:        fe9ff06f        jal x0 -24 <sanitizer_loop>

00000db4 <end_sanitizer_loop>:
    db4:        00000513        addi x10 x0 0
    db8:        00008067        jalr x0 x1 0

00000dbc <sanitize_cypher>:
    dbc:        00050593        addi x11 x10 0
    dc0:        00000617        auipc x12 0x0 <_start>
    dc4:        fcc60613        addi x12 x12 -52
    dc8:        fffff317        auipc x6 0xfffff
    dcc:        53030067        jalr x0 x6 1328

00000dd0 <encrpt_init>:
    dd0:        0ffffb17        auipc x22 0xffff
    dd4:        4beb0b13        addi x22 x22 1214
    dd8:        00000993        addi x19 x0 0
    ddc:        00100a13        addi x20 x0 1
    de0:        00050a93        addi x21 x10 0
    de4:        0600006f        jal x0 96 <cypher_loop>

00000de8 <decypher_init>:
    de8:        fff50993        addi x19 x10 -1
    dec:        0ffffb17        auipc x22 0xffff
    df0:        4b6b0b13        addi x22 x22 1206
    df4:        fff00a13        addi x20 x0 -1
    df8:        fff00a93        addi x21 x0 -1
    dfc:        0480006f        jal x0 72 <cypher_loop>

00000e00 <cypher_iter>:
    e00:        00008893        addi x17 x1 0
    e04:        00900813        addi x16 x0 9
    e08:        fffff097        auipc x1 0xfffff
    e0c:        368080e7        jalr x1 x1 872
    e10:        ffc10113        addi x2 x2 -4
    e14:        00050493        addi x9 x10 0
    e18:        00058913        addi x18 x11 0
    e1c:        00100b93        addi x23 x0 1
    e20:        fffff097        auipc x1 0xfffff
    e24:        330080e7        jalr x1 x1 816
    e28:        00050c13        addi x24 x10 0
    e2c:        00092503        lw x10 0 x18
    e30:        fffff097        auipc x1 0xfffff
    e34:        320080e7        jalr x1 x1 800
    e38:        0e050463        beq x10 x0 232 <end_cypher_loop>
    e3c:        f8061ae3        bne x12 x0 -108 <encrpt_init>
    e40:        fa9ff06f        jal x0 -88 <decypher_init>

00000e44 <cypher_loop>:
    e44:        00092303        lw x6 0 x18
    e48:        013302b3        add x5 x6 x19
    e4c:        00048513        addi x10 x9 0
    e50:        000c0593        addi x11 x24 0
    e54:        00028283        lb x5 0 x5

00000e58 <cypher_switch>:
    e58:        fbf28293        addi x5 x5 -65
    e5c:        00229293        slli x5 x5 2
    e60:        005b02b3        add x5 x22 x5
    e64:        0002a283        lw x5 0 x5
    e68:        00028067        jalr x0 x5 0

00000e6c <encrypt_case_A>:
    e6c:        00492603        lw x12 4 x18
    e70:        fffff097        auipc x1 0xfffff
    e74:        658080e7        jalr x1 x1 1624
    e78:        0640006f        jal x0 100 <end_cypher_switch>

00000e7c <decypher_case_A>:
    e7c:        00492603        lw x12 4 x18
    e80:        fffff097        auipc x1 0xfffff
    e84:        638080e7        jalr x1 x1 1592
    e88:        0540006f        jal x0 84 <end_cypher_switch>

00000e8c <encrypt_case_B>:
    e8c:        00892603        lw x12 8 x18
    e90:        00000097        auipc x1 0x0 <_start>
    e94:        864080e7        jalr x1 x1 -1948
    e98:        0440006f        jal x0 68 <end_cypher_switch>

00000e9c <decypher_case_B>:
    e9c:        00892603        lw x12 8 x18
    ea0:        00000097        auipc x1 0x0 <_start>
    ea4:        860080e7        jalr x1 x1 -1952
    ea8:        0340006f        jal x0 52 <end_cypher_switch>

00000eac <encrypt_case_C>:
    eac:        00000097        auipc x1 0x0 <_start>
    eb0:        b30080e7        jalr x1 x1 -1232
    eb4:        0280006f        jal x0 40 <end_cypher_switch>

00000eb8 <decypher_case_C>:
    eb8:        00000097        auipc x1 0x0 <_start>
    ebc:        dac080e7        jalr x1 x1 -596
    ec0:        01c0006f        jal x0 28 <end_cypher_switch>

00000ec4 <encrypt_case_D>:
    ec4:        00c92603        lw x12 12 x18
    ec8:        00000097        auipc x1 0x0 <_start>
    ecc:        e48080e7        jalr x1 x1 -440
    ed0:        00c0006f        jal x0 12 <end_cypher_switch>

00000ed4 <encrypt_case_E>:
    ed4:        00000097        auipc x1 0x0 <_start>
    ed8:        e44080e7        jalr x1 x1 -444

00000edc <end_cypher_switch>:
    edc:        00048293        addi x5 x9 0
    ee0:        00050493        addi x9 x10 0
    ee4:        00058c13        addi x24 x11 0
    ee8:        000b9a63        bne x23 x0 20 <no_free_src>

00000eec <free_src>:
    eec:        00028513        addi x10 x5 0
    ef0:        00000097        auipc x1 0x0 <_start>
    ef4:        50c080e7        jalr x1 x1 1292
    ef8:        00048513        addi x10 x9 0

00000efc <no_free_src>:
    efc:        00000b93        addi x23 x0 0

00000f00 <print_result_text>:
    f00:        00400893        addi x17 x0 4
    f04:        00000073        ecall
    f08:        00a00513        addi x10 x0 10
    f0c:        00b00893        addi x17 x0 11
    f10:        00000073        ecall
    f14:        014989b3        add x19 x19 x20
    f18:        f35996e3        bne x19 x21 -212 <cypher_loop>
    f1c:        00048513        addi x10 x9 0

00000f20 <end_cypher_loop>:
    f20:        00410113        addi x2 x2 4
    f24:        fffff317        auipc x6 0xfffff
    f28:        26030067        jalr x0 x6 608

00000f2c <strncpy>:
    f2c:        00000293        addi x5 x0 0
    f30:        02064463        blt x12 x0 40 <strncpy_end>
    f34:        00c00e63        beq x0 x12 28 <strncpy_terminate>

00000f38 <strncpy_loop>:
    f38:        00a28333        add x6 x5 x10
    f3c:        00030383        lb x7 0 x6
    f40:        00b28e33        add x28 x5 x11
    f44:        007e0023        sb x7 0 x28
    f48:        00128293        addi x5 x5 1
    f4c:        fec2c6e3        blt x5 x12 -20 <strncpy_loop>

00000f50 <strncpy_terminate>:
    f50:        00558e33        add x28 x11 x5
    f54:        000e0023        sb x0 0 x28

00000f58 <strncpy_end>:
    f58:        00058513        addi x10 x11 0
    f5c:        00008067        jalr x0 x1 0

00000f60 <best_fit_chunk_search>:
    f60:        ff810113        addi x2 x2 -8
    f64:        00112223        sw x1 4 x2
    f68:        fe810113        addi x2 x2 -24
    f6c:        00812023        sw x8 0 x2
    f70:        00912223        sw x9 4 x2
    f74:        01212423        sw x18 8 x2
    f78:        01312623        sw x19 12 x2
    f7c:        01412823        sw x20 16 x2
    f80:        01512a23        sw x21 20 x2
    f84:        01c00413        addi x8 x0 28
    f88:        10fff497        auipc x9 0x10fff
    f8c:        07848493        addi x9 x9 120
    f90:        00048913        addi x18 x9 0
    f94:        00000993        addi x19 x0 0
    f98:        0ffffa17        auipc x20 0xffff
    f9c:        322a2a03        lw x20 802 x20
    fa0:        ff4a0a13        addi x20 x20 -12
    fa4:        009a0a33        add x20 x20 x9
    fa8:        00000a93        addi x21 x0 0
    fac:        05495063        bge x18 x20 64 <end_chunk_search>

00000fb0 <chunk_search>:
    fb0:        00492283        lw x5 4 x18
    fb4:        00892303        lw x6 8 x18
    fb8:        00503fb3        sltu x31 x0 x5
    fbc:        00a32f33        slt x30 x6 x10
    fc0:        01efefb3        or x31 x31 x30
    fc4:        000f9a63        bne x31 x0 20 <next_chunk>
    fc8:        00098663        beq x19 x0 12 <select_chunk>
    fcc:        0089af83        lw x31 8 x19
    fd0:        01f35463        bge x6 x31 8 <next_chunk>

00000fd4 <select_chunk>:
    fd4:        00090993        addi x19 x18 0

00000fd8 <next_chunk>:
    fd8:        00090a93        addi x21 x18 0
    fdc:        00892f83        lw x31 8 x18
    fe0:        01f90933        add x18 x18 x31
    fe4:        00c90913        addi x18 x18 12
    fe8:        fd4944e3        blt x18 x20 -56 <chunk_search>

00000fec <end_chunk_search>:
    fec:        00098513        addi x10 x19 0
    ff0:        000a8593        addi x11 x21 0
    ff4:        00012403        lw x8 0 x2
    ff8:        00412483        lw x9 4 x2
    ffc:        00812903        lw x18 8 x2
    1000:        00c12983        lw x19 12 x2
    1004:        01012a03        lw x20 16 x2
    1008:        01412a83        lw x21 20 x2
    100c:        01810113        addi x2 x2 24
    1010:        00412083        lw x1 4 x2
    1014:        00810113        addi x2 x2 8
    1018:        00008067        jalr x0 x1 0

0000101c <fit_request_chunk_size>:
    101c:        0ffff317        auipc x6 0xffff
    1020:        2aa30313        addi x6 x6 682
    1024:        00032283        lw x5 0 x6
    1028:        00554863        blt x10 x5 16 <chunk_size_fits_request_size>

0000102c <increase_request_chunk_size>:
    102c:        00129293        slli x5 x5 1
    1030:        00532023        sw x5 0 x6
    1034:        fea2cce3        blt x5 x10 -8 <increase_request_chunk_size>

00001038 <chunk_size_fits_request_size>:
    1038:        00008067        jalr x0 x1 0

0000103c <new_chunk>:
    103c:        ff410113        addi x2 x2 -12
    1040:        00112023        sw x1 0 x2
    1044:        ffc67613        andi x12 x12 -4
    1048:        0035f293        andi x5 x11 3
    104c:        02500463        beq x0 x5 40 <four_aligned_chunk_size>

00001050 <_align_requested_size>:
    1050:        ffc10113        addi x2 x2 -4
    1054:        00a12023        sw x10 0 x2
    1058:        00058513        addi x10 x11 0
    105c:        00000097        auipc x1 0x0 <_start>
    1060:        110080e7        jalr x1 x1 272
    1064:        00050593        addi x11 x10 0
    1068:        00012503        lw x10 0 x2
    106c:        00410113        addi x2 x2 4
    1070:        00812603        lw x12 8 x2

00001074 <four_aligned_chunk_size>:
    1074:        ff460613        addi x12 x12 -12
    1078:        00059863        bne x11 x0 16 <set_chunk_size>

0000107c <use_all_available>:
    107c:        00060593        addi x11 x12 0
    1080:        00162293        slti x5 x12 1
    1084:        005585b3        add x11 x11 x5

00001088 <set_chunk_size>:
    1088:        00b65663        bge x12 x11 12 <calc_new_address>

0000108c <new_chunk_fail>:
    108c:        00000513        addi x10 x0 0
    1090:        0880006f        jal x0 136 <new_chunk_end>

00001094 <calc_new_address>:
    1094:        00a00c63        beq x0 x10 24 <no_prev>
    1098:        00852303        lw x6 8 x10
    109c:        00050293        addi x5 x10 0
    10a0:        00650533        add x10 x10 x6
    10a4:        00c50513        addi x10 x10 12
    10a8:        0100006f        jal x0 16 <set_new_chunks_prev>

000010ac <no_prev>:
    10ac:        10fff517        auipc x10 0x10fff
    10b0:        f5450513        addi x10 x10 -172
    10b4:        00000293        addi x5 x0 0

000010b8 <set_new_chunks_prev>:
    10b8:        00a12223        sw x10 4 x2
    10bc:        00552023        sw x5 0 x10

000010c0 <set_new_chunks_size>:
    10c0:        00c52423        sw x12 8 x10
    10c4:        00052223        sw x0 4 x10
    10c8:        40b60633        sub x12 x12 x11
    10cc:        00400293        addi x5 x0 4
    10d0:        00c28293        addi x5 x5 12
    10d4:        00564c63        blt x12 x5 24 <check_chunk_after_new>

000010d8 <new_chunk_with_leftover_memory>:
    10d8:        00b52423        sw x11 8 x10
    10dc:        00000593        addi x11 x0 0
    10e0:        00000097        auipc x1 0x0 <_start>
    10e4:        f5c080e7        jalr x1 x1 -164
    10e8:        02c0006f        jal x0 44 <new_chunk_return>

000010ec <check_chunk_after_new>:
    10ec:        00852283        lw x5 8 x10
    10f0:        00a282b3        add x5 x5 x10
    10f4:        00c28293        addi x5 x5 12
    10f8:        10fff317        auipc x6 0x10fff
    10fc:        f0830313        addi x6 x6 -248
    1100:        0ffff397        auipc x7 0xffff
    1104:        1ba3a383        lw x7 442 x7
    1108:        00638333        add x6 x7 x6
    110c:        00534463        blt x6 x5 8 <new_chunk_return>
    1110:        00a2a023        sw x10 0 x5

00001114 <new_chunk_return>:
    1114:        00412503        lw x10 4 x2

00001118 <new_chunk_end>:
    1118:        00012083        lw x1 0 x2
    111c:        00c10113        addi x2 x2 12
    1120:        00008067        jalr x0 x1 0

00001124 <split_chunk>:
    1124:        00452283        lw x5 4 x10
    1128:        00500663        beq x0 x5 12 <split_free_chunk>

0000112c <failed_split>:
    112c:        00000513        addi x10 x0 0
    1130:        0380006f        jal x0 56 <split_chunk_end>

00001134 <split_free_chunk>:
    1134:        ff810113        addi x2 x2 -8
    1138:        00112023        sw x1 0 x2
    113c:        00a12223        sw x10 4 x2
    1140:        00852383        lw x7 8 x10
    1144:        40b38e33        sub x28 x7 x11
    1148:        00852603        lw x12 8 x10
    114c:        00052503        lw x10 0 x10
    1150:        00c60613        addi x12 x12 12

00001154 <resize_left>:
    1154:        00000097        auipc x1 0x0 <_start>
    1158:        ee8080e7        jalr x1 x1 -280
    115c:        00412503        lw x10 4 x2
    1160:        00012083        lw x1 0 x2
    1164:        00810113        addi x2 x2 8

00001168 <split_chunk_end>:
    1168:        00008067        jalr x0 x1 0

0000116c <four_align_size>:
    116c:        ffc57293        andi x5 x10 -4
    1170:        00a2a333        slt x6 x5 x10
    1174:        00231313        slli x6 x6 2
    1178:        00628533        add x10 x5 x6
    117c:        00008067        jalr x0 x1 0

00001180 <malloc>:
    1180:        08a05263        bge x0 x10 132 <failed_malloc>
    1184:        0ffff297        auipc x5 0xffff
    1188:        1322a283        lw x5 306 x5
    118c:        40510133        sub x2 x2 x5
    1190:        00112023        sw x1 0 x2
    1194:        06a05863        bge x0 x10 112 <failed_malloc>
    1198:        0ffff297        auipc x5 0xffff
    119c:        1262a283        lw x5 294 x5
    11a0:        06a2c263        blt x5 x10 100 <failed_malloc>
    11a4:        00000097        auipc x1 0x0 <_start>
    11a8:        fc8080e7        jalr x1 x1 -56
    11ac:        00a12223        sw x10 4 x2
    11b0:        00000097        auipc x1 0x0 <_start>
    11b4:        e6c080e7        jalr x1 x1 -404
    11b8:        00000097        auipc x1 0x0 <_start>
    11bc:        064080e7        jalr x1 x1 100
    11c0:        00412503        lw x10 4 x2
    11c4:        00000097        auipc x1 0x0 <_start>
    11c8:        d9c080e7        jalr x1 x1 -612
    11cc:        00a01a63        bne x0 x10 20 <allocate_chunk>
    11d0:        00058513        addi x10 x11 0
    11d4:        00000097        auipc x1 0x0 <_start>
    11d8:        164080e7        jalr x1 x1 356
    11dc:        02050463        beq x10 x0 40 <failed_malloc>

000011e0 <allocate_chunk>:
    11e0:        00a12623        sw x10 12 x2
    11e4:        00412583        lw x11 4 x2
    11e8:        00000097        auipc x1 0x0 <_start>
    11ec:        f3c080e7        jalr x1 x1 -196

000011f0 <return_chunk>:
    11f0:        00c12503        lw x10 12 x2
    11f4:        00100293        addi x5 x0 1
    11f8:        00552223        sw x5 4 x10
    11fc:        00c50513        addi x10 x10 12
    1200:        0080006f        jal x0 8 <malloc_return>

00001204 <failed_malloc>:
    1204:        00000513        addi x10 x0 0

00001208 <malloc_return>:
    1208:        00012083        lw x1 0 x2
    120c:        0ffff297        auipc x5 0xffff
    1210:        0aa2a283        lw x5 170 x5
    1214:        00510133        add x2 x2 x5
    1218:        00008067        jalr x0 x1 0

0000121c <heap_initialize>:
    121c:        0ffff297        auipc x5 0xffff
    1220:        0a62a283        lw x5 166 x5
    1224:        04029a63        bne x5 x0 84 <heap_is_initialized>
    1228:        ffc10113        addi x2 x2 -4
    122c:        00112023        sw x1 0 x2
    1230:        0ffff297        auipc x5 0xffff
    1234:        09228293        addi x5 x5 146
    1238:        00100313        addi x6 x0 1
    123c:        0062a023        sw x6 0 x5
    1240:        0ffff517        auipc x10 0xffff
    1244:        07a52503        lw x10 122 x10
    1248:        00000097        auipc x1 0x0 <_start>
    124c:        f24080e7        jalr x1 x1 -220
    1250:        0ffff297        auipc x5 0xffff
    1254:        06a28293        addi x5 x5 106
    1258:        00a2a023        sw x10 0 x5
    125c:        00050613        addi x12 x10 0
    1260:        00000513        addi x10 x0 0
    1264:        00000593        addi x11 x0 0
    1268:        00000097        auipc x1 0x0 <_start>
    126c:        dd4080e7        jalr x1 x1 -556
    1270:        00012083        lw x1 0 x2
    1274:        00410113        addi x2 x2 4

00001278 <heap_is_initialized>:
    1278:        00008067        jalr x0 x1 0

0000127c <merge_chunks>:
    127c:        00b54863        blt x10 x11 16 <not_swap_mc>
    1280:        00b545b3        xor x11 x10 x11
    1284:        00b54533        xor x10 x10 x11
    1288:        00b545b3        xor x11 x10 x11

0000128c <not_swap_mc>:
    128c:        0fffff97        auipc x31 0xffff
    1290:        02efaf83        lw x31 46 x31
    1294:        10ffff17        auipc x30 0x10fff
    1298:        d6cf0f13        addi x30 x30 -660
    129c:        01ef8fb3        add x31 x31 x30
    12a0:        ffff0f13        addi x30 x30 -1
    12a4:        00af22b3        slt x5 x30 x10
    12a8:        01f5a333        slt x6 x11 x31
    12ac:        0062f2b3        and x5 x5 x6
    12b0:        02028063        beq x5 x0 32 <failed_merge>
    12b4:        00452283        lw x5 4 x10
    12b8:        0045a303        lw x6 4 x11
    12bc:        0005a383        lw x7 0 x11
    12c0:        007523b3        slt x7 x10 x7
    12c4:        0062eeb3        or x29 x5 x6
    12c8:        01d3eeb3        or x29 x7 x29
    12cc:        01d00663        beq x0 x29 12 <proceed_to_merge>

000012d0 <failed_merge>:
    12d0:        00000513        addi x10 x0 0
    12d4:        00008067        jalr x0 x1 0

000012d8 <proceed_to_merge>:
    12d8:        0085a303        lw x6 8 x11
    12dc:        0005a023        sw x0 0 x11
    12e0:        0005a223        sw x0 4 x11
    12e4:        0005a423        sw x0 8 x11
    12e8:        00b30f33        add x30 x6 x11
    12ec:        00cf0f13        addi x30 x30 12
    12f0:        01ff5463        bge x30 x31 8 <no_next_to_link>

000012f4 <link_next_chunk>:
    12f4:        00af2023        sw x10 0 x30

000012f8 <no_next_to_link>:
    12f8:        00852383        lw x7 8 x10
    12fc:        00c30293        addi x5 x6 12
    1300:        007282b3        add x5 x5 x7
    1304:        00552423        sw x5 8 x10

00001308 <merge_return>:
    1308:        00008067        jalr x0 x1 0

0000130c <make_newly_requested_memory_chunk>:
    130c:        00852303        lw x6 8 x10
    1310:        00c30e13        addi x28 x6 12
    1314:        005e0333        add x6 x28 x5
    1318:        00532023        sw x5 0 x6
    131c:        00032223        sw x0 4 x6
    1320:        10fffe97        auipc x29 0x10fff
    1324:        ce0e8e93        addi x29 x29 -800
    1328:        41d30f33        sub x30 x6 x29
    132c:        00cf0f13        addi x30 x30 12
    1330:        01e32423        sw x30 8 x6
    1334:        00008067        jalr x0 x1 0

00001338 <request_memory>:
    1338:        fec10113        addi x2 x2 -20
    133c:        00112023        sw x1 0 x2
    1340:        00a12223        sw x10 4 x2
    1344:        00452503        lw x10 4 x10
    1348:        00a12823        sw x10 16 x2
    134c:        0ffff317        auipc x6 0xffff
    1350:        f7a32303        lw x6 -134 x6
    1354:        0ffff397        auipc x7 0xffff
    1358:        f663a383        lw x7 -154 x7
    135c:        00c00e13        addi x28 x0 12
    1360:        01012e83        lw x29 16 x2
    1364:        03de0e33        mul x28 x28 x29
    1368:        006e0e33        add x28 x28 x6
    136c:        01c12623        sw x28 12 x2
    1370:        01c383b3        add x7 x7 x28
    1374:        00038513        addi x10 x7 0
    1378:        00000097        auipc x1 0x0 <_start>
    137c:        df4080e7        jalr x1 x1 -524
    1380:        00a12423        sw x10 8 x2

00001384 <set_new_program_break>:
    1384:        10fff297        auipc x5 0x10fff
    1388:        c7c28293        addi x5 x5 -900
    138c:        00a28533        add x10 x5 x10
    1390:        0d600893        addi x17 x0 214
    1394:        00000073        ecall
    1398:        fff00293        addi x5 x0 -1
    139c:        04550863        beq x10 x5 80 <brk_fail>

000013a0 <extend_heap>:
    13a0:        0ffff297        auipc x5 0xffff
    13a4:        f1a28293        addi x5 x5 -230
    13a8:        00812303        lw x6 8 x2
    13ac:        0062a023        sw x6 0 x5
    13b0:        01012283        lw x5 16 x2
    13b4:        00500e63        beq x0 x5 28 <extend_last_chunk>

000013b8 <create_new_chunk>:
    13b8:        00412503        lw x10 4 x2
    13bc:        00000593        addi x11 x0 0
    13c0:        00c12603        lw x12 12 x2
    13c4:        00000097        auipc x1 0x0 <_start>
    13c8:        c78080e7        jalr x1 x1 -904
    13cc:        0240006f        jal x0 36 <request_memory_return>

000013d0 <extend_last_chunk>:
    13d0:        00412283        lw x5 4 x2
    13d4:        0082a303        lw x6 8 x5
    13d8:        00c12383        lw x7 12 x2
    13dc:        00730333        add x6 x6 x7
    13e0:        0062a423        sw x6 8 x5
    13e4:        00028513        addi x10 x5 0
    13e8:        0080006f        jal x0 8 <request_memory_return>

000013ec <brk_fail>:
    13ec:        00000513        addi x10 x0 0

000013f0 <request_memory_return>:
    13f0:        00012083        lw x1 0 x2
    13f4:        01410113        addi x2 x2 20
    13f8:        00008067        jalr x0 x1 0

000013fc <free>:
    13fc:        ff810113        addi x2 x2 -8
    1400:        00112023        sw x1 0 x2
    1404:        10fff297        auipc x5 0x10fff
    1408:        bfc28293        addi x5 x5 -1028
    140c:        0ffff317        auipc x6 0xffff
    1410:        eae32303        lw x6 -338 x6
    1414:        00530333        add x6 x6 x5
    1418:        00552fb3        slt x31 x10 x5
    141c:        00a32f33        slt x30 x6 x10
    1420:        01ff6fb3        or x31 x30 x31
    1424:        07f01e63        bne x0 x31 124 <out_of_range_free>
    1428:        0082af83        lw x31 8 x5
    142c:        01f28fb3        add x31 x5 x31
    1430:        00cf8f93        addi x31 x31 12
    1434:        03f54263        blt x10 x31 36 <chunk_match>

00001438 <match_mem_addr>:
    1438:        000f8293        addi x5 x31 0
    143c:        0082af83        lw x31 8 x5
    1440:        01f28fb3        add x31 x5 x31
    1444:        00cf8f93        addi x31 x31 12
    1448:        00a2a3b3        slt x7 x5 x10
    144c:        01f52e33        slt x28 x10 x31
    1450:        007e7e33        and x28 x28 x7
    1454:        ffc002e3        beq x0 x28 -28 <match_mem_addr>

00001458 <chunk_match>:
    1458:        0042a303        lw x6 4 x5
    145c:        06600063        beq x0 x6 96 <double_free>
    1460:        0002a223        sw x0 4 x5
    1464:        00512223        sw x5 4 x2

00001468 <merge_left>:
    1468:        00028593        addi x11 x5 0
    146c:        0005a503        lw x10 0 x11
    1470:        00000097        auipc x1 0x0 <_start>
    1474:        e0c080e7        jalr x1 x1 -500
    1478:        00a01463        bne x0 x10 8 <merge_right>
    147c:        00412503        lw x10 4 x2

00001480 <merge_right>:
    1480:        00852283        lw x5 8 x10
    1484:        00c50593        addi x11 x10 12
    1488:        005585b3        add x11 x11 x5
    148c:        00000097        auipc x1 0x0 <_start>
    1490:        df0080e7        jalr x1 x1 -528
    1494:        00012083        lw x1 0 x2
    1498:        00810113        addi x2 x2 8
    149c:        00008067        jalr x0 x1 0

000014a0 <out_of_range_free>:
    14a0:        04000893        addi x17 x0 64
    14a4:        00200513        addi x10 x0 2
    14a8:        0ffff597        auipc x11 0xffff
    14ac:        e2258593        addi x11 x11 -478
    14b0:        01200613        addi x12 x0 18
    14b4:        00000073        ecall
    14b8:        ba9fe06f        jal x0 -5208 <exit>

000014bc <double_free>:
    14bc:        04000893        addi x17 x0 64
    14c0:        00200513        addi x10 x0 2
    14c4:        0ffff597        auipc x11 0xffff
    14c8:        e1958593        addi x11 x11 -487
    14cc:        01200613        addi x12 x0 18
    14d0:        00000073        ecall
    14d4:        b8dfe06f        jal x0 -5236 <exit>
